target datalayout = "e-m:e-p270:32:32-p271:32:32-p272:64:64-i64:64-i128:128-f80:128-n8:16:32:64-S128"
target triple = "x86_64-pc-linux-gnu"

%struct._address = type { i32, i32, ptr, ptr }
%struct._olc_info_t = type { i16, %struct._channel_info_t, %struct._channel_info_t }
%struct._channel_info_t = type { [32 x i8], ptr, %struct._unicast_addr_t, %struct._unicast_addr_t, i32, i8, i8 }
%struct._unicast_addr_t = type { %struct._address, [16 x i8], i32 }

@upcoming_olc = internal global ptr null, align 8
@upcoming_channel = internal global ptr null, align 8
@ett_h245_T_forwardMultiplexAckParameters = internal global i32 0, align 4

; Function Attrs: null_pointer_is_valid sspstrong uwtable
define internal i32 @dissect_h245_T_forwardMultiplexAckParameters(ptr noundef %0, i32 noundef %1, ptr noundef %2, ptr noundef %3, i32 noundef %4) #1 {
  %6 = alloca ptr, align 8
  %7 = alloca i32, align 4
  %8 = alloca ptr, align 8
  %9 = alloca ptr, align 8
  %10 = alloca i32, align 4
  store ptr %0, ptr %6, align 8
  store i32 %1, ptr %7, align 4
  store ptr %2, ptr %8, align 8
  store ptr %3, ptr %9, align 8
  store i32 %4, ptr %10, align 4
  %11 = load ptr, ptr @upcoming_olc, align 8
  %12 = icmp ne ptr %11, null
  br i1 %12, label %13, label %16

13:                                               ; preds = %5
  %14 = load ptr, ptr @upcoming_olc, align 8
  %15 = getelementptr inbounds nuw %struct._olc_info_t, ptr %14, i32 0, i32 1
  br label %17

16:                                               ; preds = %5
  br label %17

17:                                               ; preds = %16, %13
  %18 = phi ptr [ %15, %13 ], [ null, %16 ]
  store ptr %18, ptr @upcoming_channel, align 8
  %19 = load ptr, ptr %6, align 8
  %20 = load i32, ptr %7, align 4
  %21 = load ptr, ptr %8, align 8
  %22 = load ptr, ptr %9, align 8
  %23 = load i32, ptr %10, align 4
  %24 = load i32, ptr @ett_h245_T_forwardMultiplexAckParameters, align 4
  %25 = call i32 @dissect_per_choice(ptr noundef %19, i32 noundef %20, ptr noundef %21, ptr noundef %22, i32 noundef %23, i32 noundef %24, ptr noundef @T_forwardMultiplexAckParameters_choice, ptr noundef null)
  store i32 %25, ptr %7, align 4
  store ptr null, ptr @upcoming_channel, align 8
  %26 = load i32, ptr %7, align 4
  ret i32 %26
}