; Function Attrs: null_pointer_is_valid sspstrong uwtable
define internal i32 @dissect_h245_T_forwardMultiplexAckParameters(ptr noundef %0, i32 noundef %1, ptr noundef %2, ptr noundef %3, i32 noundef %4) #1 {
  %6 = load ptr, ptr @upcoming_olc, align 8
  %.not = icmp eq ptr %6, null
  %7 = getelementptr inbounds nuw i8, ptr %6, i64 8
  %8 = select i1 %.not, ptr null, ptr %7
  store ptr %8, ptr @upcoming_channel, align 8
  %9 = load i32, ptr @ett_h245_T_forwardMultiplexAckParameters, align 4
  %10 = tail call i32 @dissect_per_choice(ptr noundef %0, i32 noundef %1, ptr noundef %2, ptr noundef %3, i32 noundef %4, i32 noundef %9, ptr noundef nonnull @T_forwardMultiplexAckParameters_choice, ptr noundef null)
  store ptr null, ptr @upcoming_channel, align 8
  ret i32 %10
}